target datalayout = "e-m:e-p270:32:32-p271:32:32-p272:64:64-i64:64-i128:128-f80:128-n8:16:32:64-S128"
target triple = "x86_64-pc-linux-gnu"

%"struct.tbb::detail::r1::execution_data_ext" = type { %"struct.tbb::detail::d1::execution_data.base", ptr, i64, ptr }
%"struct.tbb::detail::d1::execution_data.base" = type <{ ptr, i16, i16 }>
%"class.tbb::detail::r1::task_dispatcher" = type { ptr, %"struct.tbb::detail::r1::execution_data_ext", %"struct.tbb::detail::r1::task_dispatcher::properties", i64, ptr, %"class.std::unordered_map" }
%"struct.tbb::detail::r1::task_dispatcher::properties" = type { i8, i8, i8 }
%"class.std::unordered_map" = type { %"class.std::_Hashtable" }
%"class.std::_Hashtable" = type { ptr, i64, %"struct.std::__detail::_Hash_node_base", i64, %"struct.std::__detail::_Prime_rehash_policy", ptr }
%"struct.std::__detail::_Hash_node_base" = type { ptr }
%"struct.std::__detail::_Prime_rehash_policy" = type { float, i64 }
%"class.tbb::detail::r1::thread_data" = type { %"struct.tbb::detail::d1::intrusive_list_node", i16, i8, i8, ptr, ptr, ptr, ptr, %"class.tbb::detail::r1::mail_inbox", %"class.tbb::detail::r1::FastRandom", ptr, ptr, ptr, i32, ptr, %"class.tbb::detail::d1::task_group_context" }
%"struct.tbb::detail::d1::intrusive_list_node" = type { ptr, ptr }
%"class.tbb::detail::r1::mail_inbox" = type { ptr }
%"class.tbb::detail::r1::FastRandom" = type { i32, i32 }
%"class.tbb::detail::d1::task_group_context" = type { i64, %"struct.std::atomic.4", i8, %"struct.tbb::detail::d1::task_group_context::context_traits", %"struct.std::atomic.6", %"struct.std::atomic.8", %union.anon, ptr, %"struct.tbb::detail::d1::intrusive_list_node", %"struct.std::atomic.9", ptr, i64, [56 x i8] }
%"struct.std::atomic.4" = type { %"struct.std::__atomic_base.5" }
%"struct.std::__atomic_base.5" = type { i32 }
%"struct.tbb::detail::d1::task_group_context::context_traits" = type { i8 }
%"struct.std::atomic.6" = type { %"struct.std::__atomic_base.7" }
%"struct.std::__atomic_base.7" = type { i8 }
%"struct.std::atomic.8" = type { i8 }
%union.anon = type { ptr }
%"struct.std::atomic.9" = type { %"struct.std::__atomic_base.10" }
%"struct.std::__atomic_base.10" = type { ptr }

; Function Attrs: mustprogress nounwind sspstrong uwtable
define linkonce_odr void @_ZN3tbb6detail2d023suppress_unused_warningIJRPNS0_2r15arenaERPKcEEEvDpOT_(ptr noundef nonnull align 8 dereferenceable(8) %0, ptr noundef nonnull align 8 dereferenceable(8) %1) #2 comdat {
  %3 = alloca ptr, align 8
  %4 = alloca ptr, align 8
  store ptr %0, ptr %3, align 8, !tbaa !357
  store ptr %1, ptr %4, align 8, !tbaa !266
  ret void
}

; Function Attrs: mustprogress nounwind sspstrong uwtable
define linkonce_odr void @_ZN3tbb6detail2d023suppress_unused_warningIJRPNS0_2r111thread_dataERPKcEEEvDpOT_(ptr noundef nonnull align 8 dereferenceable(8) %0, ptr noundef nonnull align 8 dereferenceable(8) %1) #2 comdat {
  %3 = alloca ptr, align 8
  %4 = alloca ptr, align 8
  store ptr %0, ptr %3, align 8, !tbaa !538
  store ptr %1, ptr %4, align 8, !tbaa !266
  ret void
}

; Function Attrs: mustprogress nounwind sspstrong uwtable
define linkonce_odr void @_ZN3tbb6detail2d023suppress_unused_warningIJbbEEEvDpOT_(ptr noundef nonnull align 1 dereferenceable(1) %0, ptr noundef nonnull align 1 dereferenceable(1) %1) #2 comdat {
  %3 = alloca ptr, align 8
  %4 = alloca ptr, align 8
  store ptr %0, ptr %3, align 8, !tbaa !319
  store ptr %1, ptr %4, align 8, !tbaa !319
  ret void
}

; Function Attrs: mustprogress sspstrong uwtable
define linkonce_odr noundef zeroext i1 @_ZN3tbb6detail2d020assert_pointer_validILm0ENS0_2r15arenaEEEbPT0_PKc(ptr noundef %0, ptr noundef %1) #3 comdat {
  %3 = alloca ptr, align 8
  %4 = alloca ptr, align 8
  store ptr %0, ptr %3, align 8, !tbaa !73
  store ptr %1, ptr %4, align 8, !tbaa !167
  call void @_ZN3tbb6detail2d023suppress_unused_warningIJRPNS0_2r15arenaERPKcEEEvDpOT_(ptr noundef nonnull align 8 dereferenceable(8) %3, ptr noundef nonnull align 8 dereferenceable(8) %4)
  ret i1 true
}

; Function Attrs: mustprogress sspstrong uwtable
define linkonce_odr noundef zeroext i1 @_ZN3tbb6detail2d020assert_pointer_validILm0ENS0_2r111thread_dataEEEbPT0_PKc(ptr noundef %0, ptr noundef %1) #3 comdat {
  %3 = alloca ptr, align 8
  %4 = alloca ptr, align 8
  store ptr %0, ptr %3, align 8, !tbaa !39
  store ptr %1, ptr %4, align 8, !tbaa !167
  call void @_ZN3tbb6detail2d023suppress_unused_warningIJRPNS0_2r111thread_dataERPKcEEEvDpOT_(ptr noundef nonnull align 8 dereferenceable(8) %3, ptr noundef nonnull align 8 dereferenceable(8) %4)
  ret i1 true
}

; Function Attrs: mustprogress nounwind sspstrong uwtable
define linkonce_odr void @_ZN3tbb6detail2r115task_dispatcher22set_stealing_thresholdEm(ptr noundef nonnull align 128 dereferenceable(128) %0, i64 noundef %1) #2 comdat align 2 {
  %3 = alloca ptr, align 8
  %4 = alloca i64, align 8
  %5 = alloca i8, align 1
  store ptr %0, ptr %3, align 8, !tbaa !79
  store i64 %1, ptr %4, align 8, !tbaa !72
  %6 = load ptr, ptr %3, align 8
  call void @llvm.lifetime.start.p0(i64 1, ptr %5) #12
  %7 = load i64, ptr %4, align 8, !tbaa !72
  %8 = icmp eq i64 %7, 0
  br i1 %8, label %9, label %13

9:                                                ; preds = %2
  %10 = getelementptr inbounds nuw %"class.tbb::detail::r1::task_dispatcher", ptr %6, i32 0, i32 3
  %11 = load i64, ptr %10, align 8, !tbaa !205
  %12 = icmp ne i64 %11, 0
  br i1 %12, label %22, label %13

13:                                               ; preds = %9, %2
  %14 = load i64, ptr %4, align 8, !tbaa !72
  %15 = icmp ne i64 %14, 0
  br i1 %15, label %16, label %20

16:                                               ; preds = %13
  %17 = getelementptr inbounds nuw %"class.tbb::detail::r1::task_dispatcher", ptr %6, i32 0, i32 3
  %18 = load i64, ptr %17, align 8, !tbaa !205
  %19 = icmp eq i64 %18, 0
  br label %20

20:                                               ; preds = %16, %13
  %21 = phi i1 [ false, %13 ], [ %19, %16 ]
  br label %22

22:                                               ; preds = %20, %9
  %23 = phi i1 [ true, %9 ], [ %21, %20 ]
  %24 = zext i1 %23 to i8
  store i8 %24, ptr %5, align 1, !tbaa !173
  %25 = load i64, ptr %4, align 8, !tbaa !72
  %26 = getelementptr inbounds nuw %"class.tbb::detail::r1::task_dispatcher", ptr %6, i32 0, i32 3
  store i64 %25, ptr %26, align 8, !tbaa !205
  call void @llvm.lifetime.end.p0(i64 1, ptr %5) #12
  ret void
}

; Function Attrs: mustprogress sspstrong uwtable
define linkonce_odr void @_ZN3tbb6detail2d021assert_pointers_validIJNS0_2r111thread_dataENS3_5arenaEEEEvDpPT_(ptr noundef %0, ptr noundef %1) #3 comdat {
  %3 = alloca ptr, align 8
  %4 = alloca ptr, align 8
  %5 = alloca i8, align 1
  %6 = alloca i8, align 1
  store ptr %0, ptr %3, align 8, !tbaa !39
  store ptr %1, ptr %4, align 8, !tbaa !73
  call void @llvm.lifetime.start.p0(i64 1, ptr %5) #12
  %7 = load ptr, ptr %3, align 8, !tbaa !39
  %8 = call noundef zeroext i1 @_ZN3tbb6detail2d020assert_pointer_validILm0ENS0_2r111thread_dataEEEbPT0_PKc(ptr noundef %7, ptr noundef null)
  %9 = zext i1 %8 to i8
  store i8 %9, ptr %5, align 1, !tbaa !173
  call void @llvm.lifetime.start.p0(i64 1, ptr %6) #12
  %10 = load ptr, ptr %4, align 8, !tbaa !73
  %11 = call noundef zeroext i1 @_ZN3tbb6detail2d020assert_pointer_validILm0ENS0_2r15arenaEEEbPT0_PKc(ptr noundef %10, ptr noundef null)
  %12 = zext i1 %11 to i8
  store i8 %12, ptr %6, align 1, !tbaa !173
  call void @_ZN3tbb6detail2d023suppress_unused_warningIJbbEEEvDpOT_(ptr noundef nonnull align 1 dereferenceable(1) %5, ptr noundef nonnull align 1 dereferenceable(1) %6)
  call void @llvm.lifetime.end.p0(i64 1, ptr %6) #12
  call void @llvm.lifetime.end.p0(i64 1, ptr %5) #12
  ret void
}

; Function Attrs: mustprogress nounwind sspstrong uwtable
define void @_ZN3tbb6detail2r121co_local_wait_for_allEjj(i32 noundef %0, i32 noundef %1) #2 personality ptr @__gxx_personality_v0 {
  %3 = alloca i32, align 4
  %4 = alloca i32, align 4
  %5 = alloca i64, align 8
  %6 = alloca ptr, align 8
  store i32 %0, ptr %3, align 4, !tbaa !174
  store i32 %1, ptr %4, align 4, !tbaa !174
  call void @llvm.lifetime.start.p0(i64 8, ptr %5) #12
  %7 = load i32, ptr %4, align 4, !tbaa !174
  %8 = zext i32 %7 to i64
  store i64 %8, ptr %5, align 8, !tbaa !72
  %9 = load i32, ptr %3, align 4, !tbaa !174
  %10 = zext i32 %9 to i64
  %11 = shl i64 %10, 32
  %12 = load i64, ptr %5, align 8, !tbaa !72
  %13 = add i64 %12, %11
  store i64 %13, ptr %5, align 8, !tbaa !72
  call void @llvm.lifetime.start.p0(i64 8, ptr %6) #12
  %14 = load i64, ptr %5, align 8, !tbaa !72
  %15 = inttoptr i64 %14 to ptr
  store ptr %15, ptr %6, align 8, !tbaa !79
  %16 = load ptr, ptr %6, align 8, !tbaa !79
  %17 = getelementptr inbounds nuw %"class.tbb::detail::r1::task_dispatcher", ptr %16, i32 0, i32 0
  %18 = load ptr, ptr %17, align 128, !tbaa !25
  %19 = load ptr, ptr %6, align 8, !tbaa !79
  %20 = getelementptr inbounds nuw %"class.tbb::detail::r1::task_dispatcher", ptr %19, i32 0, i32 0
  %21 = load ptr, ptr %20, align 128, !tbaa !25
  %22 = getelementptr inbounds nuw %"class.tbb::detail::r1::thread_data", ptr %21, i32 0, i32 5
  %23 = load ptr, ptr %22, align 8, !tbaa !40
  invoke void @_ZN3tbb6detail2d021assert_pointers_validIJNS0_2r111thread_dataENS3_5arenaEEEEvDpPT_(ptr noundef %18, ptr noundef %23)
          to label %24 unwind label %35

24:                                               ; preds = %2
  %25 = load ptr, ptr %6, align 8, !tbaa !79
  %26 = load ptr, ptr %6, align 8, !tbaa !79
  %27 = getelementptr inbounds nuw %"class.tbb::detail::r1::task_dispatcher", ptr %26, i32 0, i32 0
  %28 = load ptr, ptr %27, align 128, !tbaa !25
  %29 = getelementptr inbounds nuw %"class.tbb::detail::r1::thread_data", ptr %28, i32 0, i32 5
  %30 = load ptr, ptr %29, align 8, !tbaa !40
  %31 = invoke noundef i64 @_ZN3tbb6detail2r15arena28calculate_stealing_thresholdEv(ptr noundef nonnull align 128 dereferenceable(768) %30)
          to label %32 unwind label %35

32:                                               ; preds = %24
  invoke void @_ZN3tbb6detail2r115task_dispatcher22set_stealing_thresholdEm(ptr noundef nonnull align 128 dereferenceable(128) %25, i64 noundef %31)
          to label %33 unwind label %35

33:                                               ; preds = %32
  %34 = load ptr, ptr %6, align 8, !tbaa !79
  call void @_ZN3tbb6detail2r115task_dispatcher21co_local_wait_for_allEv(ptr noundef nonnull align 128 dereferenceable(128) %34) #12
  call void @llvm.lifetime.end.p0(i64 8, ptr %6) #12
  call void @llvm.lifetime.end.p0(i64 8, ptr %5) #12
  ret void

35:                                               ; preds = %32, %24, %2
  %36 = landingpad { ptr, i32 }
          catch ptr null
  %37 = extractvalue { ptr, i32 } %36, 0
  call void @__clang_call_terminate(ptr %37) #16
  unreachable
}