; Function Attrs: mustprogress nounwind sspstrong uwtable
define void @_ZN3tbb6detail2r121co_local_wait_for_allEjj(i32 noundef %0, i32 noundef %1) #4 personality ptr @__gxx_personality_v0 {
  %3 = zext i32 %1 to i64
  %4 = zext i32 %0 to i64
  %5 = shl nuw i64 %4, 32
  %6 = or disjoint i64 %5, %3
  %7 = inttoptr i64 %6 to ptr
  %8 = load ptr, ptr %7, align 128, !tbaa !41
  %9 = getelementptr inbounds nuw i8, ptr %8, i64 32
  %10 = load ptr, ptr %9, align 8, !tbaa !80
  %11 = invoke noundef i64 @_ZN3tbb6detail2r15arena28calculate_stealing_thresholdEv(ptr noundef nonnull align 128 dereferenceable(768) %10)
          to label %12 unwind label %14

12:                                               ; preds = %2
  %13 = getelementptr inbounds nuw i8, ptr %7, i64 56
  store i64 %11, ptr %13, align 8, !tbaa !201
  tail call void @_ZN3tbb6detail2r115task_dispatcher21co_local_wait_for_allEv(ptr noundef nonnull align 128 dereferenceable(128) %7) #11
  ret void

14:                                               ; preds = %2
  %15 = landingpad { ptr, i32 }
          catch ptr null
  %16 = extractvalue { ptr, i32 } %15, 0
  tail call void @__clang_call_terminate(ptr %16) #17
  unreachable
}